target datalayout = "e-m:e-p270:32:32-p271:32:32-p272:64:64-i64:64-i128:128-f80:128-n8:16:32:64-S128"
target triple = "x86_64-pc-linux-gnu"

%"class.zmq::object_t" = type <{ ptr, ptr, i32, [4 x i8] }>

; Function Attrs: mustprogress nounwind uwtable
define void @_ZN3zmq8object_tC2EPS0_(ptr noundef nonnull align 8 dereferenceable(20) %0, ptr noundef %1) unnamed_addr #0 align 2 {
  %3 = alloca ptr, align 8
  %4 = alloca ptr, align 8
  store ptr %0, ptr %3, align 8, !tbaa !3
  store ptr %1, ptr %4, align 8, !tbaa !3
  %5 = load ptr, ptr %3, align 8
  store ptr getelementptr inbounds inrange(-16, 184) ({ [25 x ptr] }, ptr @_ZTVN3zmq8object_tE, i32 0, i32 0, i32 2), ptr %5, align 8, !tbaa !12
  %6 = getelementptr inbounds nuw %"class.zmq::object_t", ptr %5, i32 0, i32 1
  %7 = load ptr, ptr %4, align 8, !tbaa !3
  %8 = getelementptr inbounds nuw %"class.zmq::object_t", ptr %7, i32 0, i32 1
  %9 = load ptr, ptr %8, align 8, !tbaa !14
  store ptr %9, ptr %6, align 8, !tbaa !14
  %10 = getelementptr inbounds nuw %"class.zmq::object_t", ptr %5, i32 0, i32 2
  %11 = load ptr, ptr %4, align 8, !tbaa !3
  %12 = getelementptr inbounds nuw %"class.zmq::object_t", ptr %11, i32 0, i32 2
  %13 = load i32, ptr %12, align 8, !tbaa !16
  store i32 %13, ptr %10, align 8, !tbaa !16
  ret void
}