; Function Attrs: mustprogress nofree norecurse nosync nounwind willreturn memory(argmem: readwrite) uwtable
define void @_ZN3zmq8object_tC2EPS0_(ptr noundef nonnull writeonly align 8 captures(none) dereferenceable(20) initializes((0, 20)) %0, ptr noundef readonly captures(none) %1) unnamed_addr #1 align 2 {
  store ptr getelementptr inbounds nuw inrange(-16, 184) (i8, ptr @_ZTVN3zmq8object_tE, i64 16), ptr %0, align 8, !tbaa !3
  %3 = getelementptr inbounds nuw i8, ptr %0, i64 8
  %4 = getelementptr inbounds nuw i8, ptr %1, i64 8
  %5 = load ptr, ptr %4, align 8, !tbaa !6
  store ptr %5, ptr %3, align 8, !tbaa !6
  %6 = getelementptr inbounds nuw i8, ptr %0, i64 16
  %7 = getelementptr inbounds nuw i8, ptr %1, i64 16
  %8 = load i32, ptr %7, align 8, !tbaa !12
  store i32 %8, ptr %6, align 8, !tbaa !12
  ret void
}